; ModuleID = 'source-C-CXX/25/49.cpp'
source_filename = "source-C-CXX/25/49.cpp"
target datalayout = "e-m:e-p270:32:32-p271:32:32-p272:64:64-i64:64-f80:128-n8:16:32:64-S128"
target triple = "x86_64-pc-linux-gnu"

%"class.std::ios_base::Init" = type { i8 }
%"class.std::basic_istream" = type { i32 (...)**, i64, %"class.std::basic_ios" }
%"class.std::basic_ios" = type { %"class.std::ios_base", %"class.std::basic_ostream"*, i8, i8, %"class.std::basic_streambuf"*, %"class.std::ctype"*, %"class.std::num_put"*, %"class.std::num_get"* }
%"class.std::ios_base" = type { i32 (...)**, i64, i64, i32, i32, i32, %"struct.std::ios_base::_Callback_list"*, %"struct.std::ios_base::_Words", [8 x %"struct.std::ios_base::_Words"], i32, %"struct.std::ios_base::_Words"*, %"class.std::locale" }
%"struct.std::ios_base::_Callback_list" = type { %"struct.std::ios_base::_Callback_list"*, void (i32, %"class.std::ios_base"*, i32)*, i32, i32 }
%"struct.std::ios_base::_Words" = type { i8*, i64 }
%"class.std::locale" = type { %"class.std::locale::_Impl"* }
%"class.std::locale::_Impl" = type { i32, %"class.std::locale::facet"**, i64, %"class.std::locale::facet"**, i8** }
%"class.std::locale::facet" = type <{ i32 (...)**, i32, [4 x i8] }>
%"class.std::basic_ostream" = type { i32 (...)**, %"class.std::basic_ios" }
%"class.std::basic_streambuf" = type { i32 (...)**, i8*, i8*, i8*, i8*, i8*, i8*, %"class.std::locale" }
%"class.std::ctype" = type <{ %"class.std::locale::facet.base", [4 x i8], %struct.__locale_struct*, i8, [7 x i8], i32*, i32*, i16*, i8, [256 x i8], [256 x i8], i8, [6 x i8] }>
%"class.std::locale::facet.base" = type <{ i32 (...)**, i32 }>
%struct.__locale_struct = type { [13 x %struct.__locale_data*], i16*, i32*, i32*, [13 x i8*] }
%struct.__locale_data = type opaque
%"class.std::num_put" = type { %"class.std::locale::facet.base", [4 x i8] }
%"class.std::num_get" = type { %"class.std::locale::facet.base", [4 x i8] }

@_ZStL8__ioinit = internal global %"class.std::ios_base::Init" zeroinitializer, align 1
@__dso_handle = external hidden global i8
@_ZSt3cin = external global %"class.std::basic_istream", align 8
@_ZSt4cout = external global %"class.std::basic_ostream", align 8
@llvm.global_ctors = appending global [1 x { i32, void ()*, i8* }] [{ i32, void ()*, i8* } { i32 65535, void ()* @_GLOBAL__sub_I_49.cpp, i8* null }]

declare void @_ZNSt8ios_base4InitC1Ev(%"class.std::ios_base::Init"* nonnull align 1 dereferenceable(1)) unnamed_addr #0

; Function Attrs: nounwind
declare void @_ZNSt8ios_base4InitD1Ev(%"class.std::ios_base::Init"* nonnull align 1 dereferenceable(1)) unnamed_addr #1

; Function Attrs: nofree nounwind
declare i32 @__cxa_atexit(void (i8*)*, i8*, i8*) local_unnamed_addr #2

; Function Attrs: mustprogress norecurse sspstrong uwtable
define dso_local i32 @main() local_unnamed_addr #3 {
  %1 = alloca [100 x i8], align 16
  %2 = getelementptr inbounds [100 x i8], [100 x i8]* %1, i64 0, i64 0
  call void @llvm.lifetime.start.p0i8(i64 100, i8* nonnull %2) #8
  %3 = load i8*, i8** bitcast (%"class.std::basic_istream"* @_ZSt3cin to i8**), align 8, !tbaa !5
  %4 = getelementptr i8, i8* %3, i64 -24
  %5 = bitcast i8* %4 to i64*
  %6 = load i64, i64* %5, align 8
  %7 = add nsw i64 %6, 240
  %8 = getelementptr inbounds i8, i8* bitcast (%"class.std::basic_istream"* @_ZSt3cin to i8*), i64 %7
  %9 = bitcast i8* %8 to %"class.std::ctype"**
  %10 = load %"class.std::ctype"*, %"class.std::ctype"** %9, align 8, !tbaa !8
  %11 = icmp eq %"class.std::ctype"* %10, null
  br i1 %11, label %12, label %13

12:                                               ; preds = %0
  tail call void @_ZSt16__throw_bad_castv() #9
  unreachable

13:                                               ; preds = %0
  %14 = getelementptr inbounds %"class.std::ctype", %"class.std::ctype"* %10, i64 0, i32 8
  %15 = load i8, i8* %14, align 8, !tbaa !13
  %16 = icmp eq i8 %15, 0
  br i1 %16, label %20, label %17

17:                                               ; preds = %13
  %18 = getelementptr inbounds %"class.std::ctype", %"class.std::ctype"* %10, i64 0, i32 9, i64 10
  %19 = load i8, i8* %18, align 1, !tbaa !15
  br label %26

20:                                               ; preds = %13
  tail call void @_ZNKSt5ctypeIcE13_M_widen_initEv(%"class.std::ctype"* nonnull align 8 dereferenceable(570) %10)
  %21 = bitcast %"class.std::ctype"* %10 to i8 (%"class.std::ctype"*, i8)***
  %22 = load i8 (%"class.std::ctype"*, i8)**, i8 (%"class.std::ctype"*, i8)*** %21, align 8, !tbaa !5
  %23 = getelementptr inbounds i8 (%"class.std::ctype"*, i8)*, i8 (%"class.std::ctype"*, i8)** %22, i64 6
  %24 = load i8 (%"class.std::ctype"*, i8)*, i8 (%"class.std::ctype"*, i8)** %23, align 8
  %25 = tail call signext i8 %24(%"class.std::ctype"* nonnull align 8 dereferenceable(570) %10, i8 signext 10)
  br label %26

26:                                               ; preds = %17, %20
  %27 = phi i8 [ %19, %17 ], [ %25, %20 ]
  %28 = call nonnull align 8 dereferenceable(16) %"class.std::basic_istream"* @_ZNSi7getlineEPclc(%"class.std::basic_istream"* nonnull align 8 dereferenceable(16) @_ZSt3cin, i8* nonnull %2, i64 100, i8 signext %27)
  br label %59

29:                                               ; preds = %168
  %30 = call i64 @strlen(i8* noundef nonnull dereferenceable(1) %2) #8
  %31 = call nonnull align 8 dereferenceable(8) %"class.std::basic_ostream"* @_ZSt16__ostream_insertIcSt11char_traitsIcEERSt13basic_ostreamIT_T0_ES6_PKS3_l(%"class.std::basic_ostream"* nonnull align 8 dereferenceable(8) @_ZSt4cout, i8* nonnull %2, i64 %30)
  %32 = load i8*, i8** bitcast (%"class.std::basic_ostream"* @_ZSt4cout to i8**), align 8, !tbaa !5
  %33 = getelementptr i8, i8* %32, i64 -24
  %34 = bitcast i8* %33 to i64*
  %35 = load i64, i64* %34, align 8
  %36 = add nsw i64 %35, 240
  %37 = getelementptr inbounds i8, i8* bitcast (%"class.std::basic_ostream"* @_ZSt4cout to i8*), i64 %36
  %38 = bitcast i8* %37 to %"class.std::ctype"**
  %39 = load %"class.std::ctype"*, %"class.std::ctype"** %38, align 8, !tbaa !8
  %40 = icmp eq %"class.std::ctype"* %39, null
  br i1 %40, label %41, label %42

41:                                               ; preds = %29
  call void @_ZSt16__throw_bad_castv() #9
  unreachable

42:                                               ; preds = %29
  %43 = getelementptr inbounds %"class.std::ctype", %"class.std::ctype"* %39, i64 0, i32 8
  %44 = load i8, i8* %43, align 8, !tbaa !13
  %45 = icmp eq i8 %44, 0
  br i1 %45, label %49, label %46

46:                                               ; preds = %42
  %47 = getelementptr inbounds %"class.std::ctype", %"class.std::ctype"* %39, i64 0, i32 9, i64 10
  %48 = load i8, i8* %47, align 1, !tbaa !15
  br label %55

49:                                               ; preds = %42
  call void @_ZNKSt5ctypeIcE13_M_widen_initEv(%"class.std::ctype"* nonnull align 8 dereferenceable(570) %39)
  %50 = bitcast %"class.std::ctype"* %39 to i8 (%"class.std::ctype"*, i8)***
  %51 = load i8 (%"class.std::ctype"*, i8)**, i8 (%"class.std::ctype"*, i8)*** %50, align 8, !tbaa !5
  %52 = getelementptr inbounds i8 (%"class.std::ctype"*, i8)*, i8 (%"class.std::ctype"*, i8)** %51, i64 6
  %53 = load i8 (%"class.std::ctype"*, i8)*, i8 (%"class.std::ctype"*, i8)** %52, align 8
  %54 = call signext i8 %53(%"class.std::ctype"* nonnull align 8 dereferenceable(570) %39, i8 signext 10)
  br label %55

55:                                               ; preds = %46, %49
  %56 = phi i8 [ %48, %46 ], [ %54, %49 ]
  %57 = call nonnull align 8 dereferenceable(8) %"class.std::basic_ostream"* @_ZNSo3putEc(%"class.std::basic_ostream"* nonnull align 8 dereferenceable(8) @_ZSt4cout, i8 signext %56)
  %58 = call nonnull align 8 dereferenceable(8) %"class.std::basic_ostream"* @_ZNSo5flushEv(%"class.std::basic_ostream"* nonnull align 8 dereferenceable(8) %57)
  call void @llvm.lifetime.end.p0i8(i64 100, i8* nonnull %2) #8
  ret i32 0

59:                                               ; preds = %26, %168
  %60 = phi i32 [ 1, %26 ], [ %170, %168 ]
  %61 = add nsw i32 %60, -1
  %62 = sext i32 %61 to i64
  %63 = getelementptr inbounds [100 x i8], [100 x i8]* %1, i64 0, i64 %62
  %64 = load i8, i8* %63, align 1, !tbaa !15
  %65 = icmp eq i8 %64, 32
  br i1 %65, label %66, label %168

66:                                               ; preds = %59
  %67 = sext i32 %60 to i64
  %68 = getelementptr inbounds [100 x i8], [100 x i8]* %1, i64 0, i64 %67
  %69 = load i8, i8* %68, align 1, !tbaa !15
  %70 = icmp eq i8 %69, 32
  br i1 %70, label %71, label %168

71:                                               ; preds = %66
  %72 = icmp slt i32 %60, 99
  br i1 %72, label %73, label %168

73:                                               ; preds = %71
  %74 = sub nsw i64 99, %67
  %75 = icmp ult i64 %74, 8
  br i1 %75, label %159, label %76

76:                                               ; preds = %73
  %77 = icmp ult i64 %74, 32
  br i1 %77, label %140, label %78

78:                                               ; preds = %76
  %79 = and i64 %74, -32
  %80 = add nsw i64 %79, -32
  %81 = lshr exact i64 %80, 5
  %82 = add nuw nsw i64 %81, 1
  %83 = and i64 %82, 1
  %84 = icmp eq i64 %80, 0
  br i1 %84, label %118, label %85

85:                                               ; preds = %78
  %86 = and i64 %82, 1152921504606846974
  br label %87

87:                                               ; preds = %87, %85
  %88 = phi i64 [ 0, %85 ], [ %115, %87 ]
  %89 = phi i64 [ %86, %85 ], [ %116, %87 ]
  %90 = add i64 %88, %67
  %91 = add nsw i64 %90, 1
  %92 = getelementptr inbounds [100 x i8], [100 x i8]* %1, i64 0, i64 %91
  %93 = bitcast i8* %92 to <16 x i8>*
  %94 = load <16 x i8>, <16 x i8>* %93, align 1, !tbaa !15
  %95 = getelementptr inbounds i8, i8* %92, i64 16
  %96 = bitcast i8* %95 to <16 x i8>*
  %97 = load <16 x i8>, <16 x i8>* %96, align 1, !tbaa !15
  %98 = getelementptr inbounds [100 x i8], [100 x i8]* %1, i64 0, i64 %90
  %99 = bitcast i8* %98 to <16 x i8>*
  store <16 x i8> %94, <16 x i8>* %99, align 1, !tbaa !15
  %100 = getelementptr inbounds i8, i8* %98, i64 16
  %101 = bitcast i8* %100 to <16 x i8>*
  store <16 x i8> %97, <16 x i8>* %101, align 1, !tbaa !15
  %102 = or i64 %88, 32
  %103 = add i64 %102, %67
  %104 = add nsw i64 %103, 1
  %105 = getelementptr inbounds [100 x i8], [100 x i8]* %1, i64 0, i64 %104
  %106 = bitcast i8* %105 to <16 x i8>*
  %107 = load <16 x i8>, <16 x i8>* %106, align 1, !tbaa !15
  %108 = getelementptr inbounds i8, i8* %105, i64 16
  %109 = bitcast i8* %108 to <16 x i8>*
  %110 = load <16 x i8>, <16 x i8>* %109, align 1, !tbaa !15
  %111 = getelementptr inbounds [100 x i8], [100 x i8]* %1, i64 0, i64 %103
  %112 = bitcast i8* %111 to <16 x i8>*
  store <16 x i8> %107, <16 x i8>* %112, align 1, !tbaa !15
  %113 = getelementptr inbounds i8, i8* %111, i64 16
  %114 = bitcast i8* %113 to <16 x i8>*
  store <16 x i8> %110, <16 x i8>* %114, align 1, !tbaa !15
  %115 = add nuw i64 %88, 64
  %116 = add i64 %89, -2
  %117 = icmp eq i64 %116, 0
  br i1 %117, label %118, label %87, !llvm.loop !16

118:                                              ; preds = %87, %78
  %119 = phi i64 [ 0, %78 ], [ %115, %87 ]
  %120 = icmp eq i64 %83, 0
  br i1 %120, label %134, label %121

121:                                              ; preds = %118
  %122 = add i64 %119, %67
  %123 = add nsw i64 %122, 1
  %124 = getelementptr inbounds [100 x i8], [100 x i8]* %1, i64 0, i64 %123
  %125 = bitcast i8* %124 to <16 x i8>*
  %126 = load <16 x i8>, <16 x i8>* %125, align 1, !tbaa !15
  %127 = getelementptr inbounds i8, i8* %124, i64 16
  %128 = bitcast i8* %127 to <16 x i8>*
  %129 = load <16 x i8>, <16 x i8>* %128, align 1, !tbaa !15
  %130 = getelementptr inbounds [100 x i8], [100 x i8]* %1, i64 0, i64 %122
  %131 = bitcast i8* %130 to <16 x i8>*
  store <16 x i8> %126, <16 x i8>* %131, align 1, !tbaa !15
  %132 = getelementptr inbounds i8, i8* %130, i64 16
  %133 = bitcast i8* %132 to <16 x i8>*
  store <16 x i8> %129, <16 x i8>* %133, align 1, !tbaa !15
  br label %134

134:                                              ; preds = %118, %121
  %135 = icmp eq i64 %74, %79
  br i1 %135, label %168, label %136

136:                                              ; preds = %134
  %137 = add nsw i64 %79, %67
  %138 = and i64 %74, 24
  %139 = icmp eq i64 %138, 0
  br i1 %139, label %159, label %140

140:                                              ; preds = %76, %136
  %141 = phi i64 [ %79, %136 ], [ 0, %76 ]
  %142 = sext i32 %60 to i64
  %143 = sub nsw i64 99, %142
  %144 = and i64 %143, -8
  %145 = add nsw i64 %144, %67
  br label %146

146:                                              ; preds = %146, %140
  %147 = phi i64 [ %141, %140 ], [ %155, %146 ]
  %148 = add i64 %147, %67
  %149 = add nsw i64 %148, 1
  %150 = getelementptr inbounds [100 x i8], [100 x i8]* %1, i64 0, i64 %149
  %151 = bitcast i8* %150 to <8 x i8>*
  %152 = load <8 x i8>, <8 x i8>* %151, align 1, !tbaa !15
  %153 = getelementptr inbounds [100 x i8], [100 x i8]* %1, i64 0, i64 %148
  %154 = bitcast i8* %153 to <8 x i8>*
  store <8 x i8> %152, <8 x i8>* %154, align 1, !tbaa !15
  %155 = add nuw i64 %147, 8
  %156 = icmp eq i64 %155, %144
  br i1 %156, label %157, label %146, !llvm.loop !19

157:                                              ; preds = %146
  %158 = icmp eq i64 %143, %144
  br i1 %158, label %168, label %159

159:                                              ; preds = %73, %136, %157
  %160 = phi i64 [ %67, %73 ], [ %137, %136 ], [ %145, %157 ]
  br label %161

161:                                              ; preds = %159, %161
  %162 = phi i64 [ %163, %161 ], [ %160, %159 ]
  %163 = add nsw i64 %162, 1
  %164 = getelementptr inbounds [100 x i8], [100 x i8]* %1, i64 0, i64 %163
  %165 = load i8, i8* %164, align 1, !tbaa !15
  %166 = getelementptr inbounds [100 x i8], [100 x i8]* %1, i64 0, i64 %162
  store i8 %165, i8* %166, align 1, !tbaa !15
  %167 = icmp eq i64 %163, 99
  br i1 %167, label %168, label %161, !llvm.loop !20

168:                                              ; preds = %161, %134, %157, %71, %59, %66
  %169 = phi i32 [ %60, %66 ], [ %60, %59 ], [ 98, %71 ], [ %61, %157 ], [ %61, %134 ], [ %61, %161 ]
  %170 = add nsw i32 %169, 1
  %171 = icmp slt i32 %169, 99
  br i1 %171, label %59, label %29, !llvm.loop !22
}

; Function Attrs: argmemonly mustprogress nofree nosync nounwind willreturn
declare void @llvm.lifetime.start.p0i8(i64 immarg, i8* nocapture) #4

; Function Attrs: argmemonly mustprogress nofree nosync nounwind willreturn
declare void @llvm.lifetime.end.p0i8(i64 immarg, i8* nocapture) #4

declare nonnull align 8 dereferenceable(16) %"class.std::basic_istream"* @_ZNSi7getlineEPclc(%"class.std::basic_istream"* nonnull align 8 dereferenceable(16), i8*, i64, i8 signext) local_unnamed_addr #0

; Function Attrs: noreturn
declare void @_ZSt16__throw_bad_castv() local_unnamed_addr #5

declare void @_ZNKSt5ctypeIcE13_M_widen_initEv(%"class.std::ctype"* nonnull align 8 dereferenceable(570)) local_unnamed_addr #0

declare nonnull align 8 dereferenceable(8) %"class.std::basic_ostream"* @_ZSt16__ostream_insertIcSt11char_traitsIcEERSt13basic_ostreamIT_T0_ES6_PKS3_l(%"class.std::basic_ostream"* nonnull align 8 dereferenceable(8), i8*, i64) local_unnamed_addr #0

; Function Attrs: argmemonly mustprogress nofree nounwind readonly willreturn
declare i64 @strlen(i8* nocapture) local_unnamed_addr #6

declare nonnull align 8 dereferenceable(8) %"class.std::basic_ostream"* @_ZNSo3putEc(%"class.std::basic_ostream"* nonnull align 8 dereferenceable(8), i8 signext) local_unnamed_addr #0

declare nonnull align 8 dereferenceable(8) %"class.std::basic_ostream"* @_ZNSo5flushEv(%"class.std::basic_ostream"* nonnull align 8 dereferenceable(8)) local_unnamed_addr #0

; Function Attrs: sspstrong uwtable
define internal void @_GLOBAL__sub_I_49.cpp() #7 section ".text.startup" {
  tail call void @_ZNSt8ios_base4InitC1Ev(%"class.std::ios_base::Init"* nonnull align 1 dereferenceable(1) @_ZStL8__ioinit)
  %1 = tail call i32 @__cxa_atexit(void (i8*)* bitcast (void (%"class.std::ios_base::Init"*)* @_ZNSt8ios_base4InitD1Ev to void (i8*)*), i8* getelementptr inbounds (%"class.std::ios_base::Init", %"class.std::ios_base::Init"* @_ZStL8__ioinit, i64 0, i32 0), i8* nonnull @__dso_handle) #8
  ret void
}


!llvm.module.flags = !{!0, !1, !2, !3}
!llvm.ident = !{!4}

!0 = !{i32 1, !"wchar_size", i32 4}
!1 = !{i32 7, !"PIC Level", i32 2}
!2 = !{i32 7, !"PIE Level", i32 2}
!3 = !{i32 7, !"uwtable", i32 1}
!4 = !{!"clang version 13.0.0"}
!5 = !{!6, !6, i64 0}
!6 = !{!"vtable pointer", !7, i64 0}
!7 = !{!"Simple C++ TBAA"}
!8 = !{!9, !10, i64 240}
!9 = !{!"_ZTSSt9basic_iosIcSt11char_traitsIcEE", !10, i64 216, !11, i64 224, !12, i64 225, !10, i64 232, !10, i64 240, !10, i64 248, !10, i64 256}
!10 = !{!"any pointer", !11, i64 0}
!11 = !{!"omnipotent char", !7, i64 0}
!12 = !{!"bool", !11, i64 0}
!13 = !{!14, !11, i64 56}
!14 = !{!"_ZTSSt5ctypeIcE", !10, i64 16, !12, i64 24, !10, i64 32, !10, i64 40, !10, i64 48, !11, i64 56, !11, i64 57, !11, i64 313, !11, i64 569}
!15 = !{!11, !11, i64 0}
!16 = distinct !{!16, !17, !18}
!17 = !{!"llvm.loop.mustprogress"}
!18 = !{!"llvm.loop.isvectorized", i32 1}
!19 = distinct !{!19, !17, !18}
!20 = distinct !{!20, !17, !21, !18}
!21 = !{!"llvm.loop.unroll.runtime.disable"}
!22 = distinct !{!22, !17}
